; ModuleID = '11/193.c'
source_filename = "11/193.c"
target datalayout = "e-m:e-p270:32:32-p271:32:32-p272:64:64-i64:64-f80:128-n8:16:32:64-S128"
target triple = "x86_64-pc-linux-gnu"

@.str = private unnamed_addr constant [9 x i8] c"%d %d %d\00", align 1
@__const.main.p = private unnamed_addr constant [13 x i32] [i32 0, i32 31, i32 29, i32 31, i32 30, i32 31, i32 30, i32 31, i32 31, i32 30, i32 31, i32 30, i32 31], align 16
@.str.1 = private unnamed_addr constant [16 x i8] c"Illegal input.\0A\00", align 1
@.str.2 = private unnamed_addr constant [4 x i8] c"%d\0A\00", align 1
@__const.main.q = private unnamed_addr constant [13 x i32] [i32 0, i32 31, i32 28, i32 31, i32 30, i32 31, i32 30, i32 31, i32 31, i32 30, i32 31, i32 30, i32 31], align 16

; Function Attrs: noinline nounwind uwtable
define dso_local i32 @main(i32 %0, i8** %1) #0 {
  %3 = alloca i32, align 4
  %4 = alloca i32, align 4
  %5 = alloca i8**, align 8
  %6 = alloca i32, align 4
  %7 = alloca i32, align 4
  %8 = alloca i32, align 4
  %9 = alloca i32, align 4
  %10 = alloca i32, align 4
  %11 = alloca [13 x i32], align 16
  %12 = alloca i32, align 4
  %13 = alloca [13 x i32], align 16
  %14 = alloca i32, align 4
  store i32 0, i32* %3, align 4
  store i32 %0, i32* %4, align 4
  store i8** %1, i8*** %5, align 8
  store i32 0, i32* %6, align 4
  %15 = call i32 (i8*, ...) @__isoc99_scanf(i8* getelementptr inbounds ([9 x i8], [9 x i8]* @.str, i64 0, i64 0), i32* %8, i32* %9, i32* %10)
  %16 = load i32, i32* %8, align 4
  %17 = srem i32 %16, 100
  %18 = icmp ne i32 %17, 0
  br i1 %18, label %19, label %58

19:                                               ; preds = %2
  %20 = load i32, i32* %8, align 4
  %21 = srem i32 %20, 4
  %22 = icmp eq i32 %21, 0
  br i1 %22, label %23, label %58

23:                                               ; preds = %19
  %24 = bitcast [13 x i32]* %11 to i8*
  call void @llvm.memcpy.p0i8.p0i8.i64(i8* align 16 %24, i8* align 16 bitcast ([13 x i32]* @__const.main.p to i8*), i64 52, i1 false)
  %25 = load i32, i32* %10, align 4
  %26 = icmp slt i32 %25, 1
  br i1 %26, label %34, label %27

27:                                               ; preds = %23
  %28 = load i32, i32* %10, align 4
  %29 = load i32, i32* %9, align 4
  %30 = sext i32 %29 to i64
  %31 = getelementptr inbounds [13 x i32], [13 x i32]* %11, i64 0, i64 %30
  %32 = load i32, i32* %31, align 4
  %33 = icmp sgt i32 %28, %32
  br i1 %33, label %34, label %36

34:                                               ; preds = %27, %23
  %35 = call i32 (i8*, ...) @printf(i8* getelementptr inbounds ([16 x i8], [16 x i8]* @.str.1, i64 0, i64 0))
  br label %57

36:                                               ; preds = %27
  store i32 0, i32* %12, align 4
  br label %37

37:                                               ; preds = %48, %36
  %38 = load i32, i32* %12, align 4
  %39 = load i32, i32* %9, align 4
  %40 = icmp slt i32 %38, %39
  br i1 %40, label %41, label %51

41:                                               ; preds = %37
  %42 = load i32, i32* %6, align 4
  %43 = load i32, i32* %12, align 4
  %44 = sext i32 %43 to i64
  %45 = getelementptr inbounds [13 x i32], [13 x i32]* %11, i64 0, i64 %44
  %46 = load i32, i32* %45, align 4
  %47 = add nsw i32 %42, %46
  store i32 %47, i32* %6, align 4
  br label %48

48:                                               ; preds = %41
  %49 = load i32, i32* %12, align 4
  %50 = add nsw i32 %49, 1
  store i32 %50, i32* %12, align 4
  br label %37

51:                                               ; preds = %37
  %52 = load i32, i32* %6, align 4
  %53 = load i32, i32* %10, align 4
  %54 = add nsw i32 %52, %53
  store i32 %54, i32* %7, align 4
  %55 = load i32, i32* %7, align 4
  %56 = call i32 (i8*, ...) @printf(i8* getelementptr inbounds ([4 x i8], [4 x i8]* @.str.2, i64 0, i64 0), i32 %55)
  br label %57

57:                                               ; preds = %51, %34
  br label %98

58:                                               ; preds = %19, %2
  %59 = load i32, i32* %8, align 4
  %60 = srem i32 %59, 4
  %61 = icmp ne i32 %60, 0
  br i1 %61, label %62, label %97

62:                                               ; preds = %58
  %63 = bitcast [13 x i32]* %13 to i8*
  call void @llvm.memcpy.p0i8.p0i8.i64(i8* align 16 %63, i8* align 16 bitcast ([13 x i32]* @__const.main.q to i8*), i64 52, i1 false)
  %64 = load i32, i32* %10, align 4
  %65 = icmp slt i32 %64, 1
  br i1 %65, label %73, label %66

66:                                               ; preds = %62
  %67 = load i32, i32* %10, align 4
  %68 = load i32, i32* %9, align 4
  %69 = sext i32 %68 to i64
  %70 = getelementptr inbounds [13 x i32], [13 x i32]* %13, i64 0, i64 %69
  %71 = load i32, i32* %70, align 4
  %72 = icmp sgt i32 %67, %71
  br i1 %72, label %73, label %75

73:                                               ; preds = %66, %62
  %74 = call i32 (i8*, ...) @printf(i8* getelementptr inbounds ([16 x i8], [16 x i8]* @.str.1, i64 0, i64 0))
  br label %96

75:                                               ; preds = %66
  store i32 0, i32* %14, align 4
  br label %76

76:                                               ; preds = %87, %75
  %77 = load i32, i32* %14, align 4
  %78 = load i32, i32* %9, align 4
  %79 = icmp slt i32 %77, %78
  br i1 %79, label %80, label %90

80:                                               ; preds = %76
  %81 = load i32, i32* %6, align 4
  %82 = load i32, i32* %14, align 4
  %83 = sext i32 %82 to i64
  %84 = getelementptr inbounds [13 x i32], [13 x i32]* %13, i64 0, i64 %83
  %85 = load i32, i32* %84, align 4
  %86 = add nsw i32 %81, %85
  store i32 %86, i32* %6, align 4
  br label %87

87:                                               ; preds = %80
  %88 = load i32, i32* %14, align 4
  %89 = add nsw i32 %88, 1
  store i32 %89, i32* %14, align 4
  br label %76

90:                                               ; preds = %76
  %91 = load i32, i32* %6, align 4
  %92 = load i32, i32* %10, align 4
  %93 = add nsw i32 %91, %92
  store i32 %93, i32* %7, align 4
  %94 = load i32, i32* %7, align 4
  %95 = call i32 (i8*, ...) @printf(i8* getelementptr inbounds ([4 x i8], [4 x i8]* @.str.2, i64 0, i64 0), i32 %94)
  br label %96

96:                                               ; preds = %90, %73
  br label %97

97:                                               ; preds = %96, %58
  br label %98

98:                                               ; preds = %97, %57
  ret i32 0
}

declare dso_local i32 @__isoc99_scanf(i8*, ...) #1

; Function Attrs: argmemonly nounwind willreturn
declare void @llvm.memcpy.p0i8.p0i8.i64(i8* noalias nocapture writeonly, i8* noalias nocapture readonly, i64, i1 immarg) #2

declare dso_local i32 @printf(i8*, ...) #1


!llvm.module.flags = !{!0}
!llvm.ident = !{!1}

!0 = !{i32 1, !"wchar_size", i32 4}
!1 = !{!"clang version 10.0.0-4ubuntu1 "}
